; Function Attrs: nounwind uwtable
define zeroext i8 @lean_is_aux_recursor(ptr noundef %0, ptr noundef %1) local_unnamed_addr #0 {
  %3 = load ptr, ptr @l_Lean_markAuxRecursor___closed__1, align 8, !tbaa !4
  %4 = ptrtoint ptr %1 to i64
  %5 = and i64 %4, 1
  %.not = icmp eq i64 %5, 0
  br i1 %.not, label %6, label %lean_inc.exit.thread

6:                                                ; preds = %2
  %.val.i = load i32, ptr %1, align 4, !tbaa !8
  %7 = icmp sgt i32 %.val.i, 0
  br i1 %7, label %8, label %10, !prof !11

8:                                                ; preds = %6
  %9 = add nuw i32 %.val.i, 1
  store i32 %9, ptr %1, align 4, !tbaa !8
  br label %lean_inc.exit

10:                                               ; preds = %6
  %.not.i22 = icmp eq i32 %.val.i, 0
  br i1 %.not.i22, label %lean_inc.exit, label %11

11:                                               ; preds = %10
  tail call void @lean_inc_ref_cold(ptr noundef nonnull %1) #3
  br label %lean_inc.exit

lean_inc.exit:                                    ; preds = %11, %10, %8
  %12 = tail call zeroext i8 @l_Lean_TagDeclarationExtension_isTagged(ptr noundef %3, ptr noundef %0, ptr noundef nonnull %1) #3
  %13 = icmp eq i8 %12, 0
  br i1 %13, label %16, label %41

lean_inc.exit.thread:                             ; preds = %2
  %14 = tail call zeroext i8 @l_Lean_TagDeclarationExtension_isTagged(ptr noundef %3, ptr noundef %0, ptr noundef %1) #3
  %15 = icmp eq i8 %14, 0
  br i1 %15, label %.thread23, label %lean_dec.exit

16:                                               ; preds = %lean_inc.exit
  %17 = load ptr, ptr @l_Lean_isAuxRecursor___closed__3, align 8, !tbaa !4
  %18 = tail call zeroext i8 @lean_name_eq(ptr noundef nonnull %1, ptr noundef %17) #3
  %19 = icmp eq i8 %18, 0
  br i1 %19, label %25, label %34

.thread23:                                        ; preds = %lean_inc.exit.thread
  %20 = load ptr, ptr @l_Lean_isAuxRecursor___closed__3, align 8, !tbaa !4
  %21 = tail call zeroext i8 @lean_name_eq(ptr noundef %1, ptr noundef %20) #3
  %22 = icmp eq i8 %21, 0
  br i1 %22, label %.thread25, label %lean_dec.exit

.thread25:                                        ; preds = %.thread23
  %23 = load ptr, ptr @l_Lean_isAuxRecursor___closed__5, align 8, !tbaa !4
  %24 = tail call zeroext i8 @lean_name_eq(ptr noundef %1, ptr noundef %23) #3
  br label %lean_dec.exit

25:                                               ; preds = %16
  %26 = load ptr, ptr @l_Lean_isAuxRecursor___closed__5, align 8, !tbaa !4
  %27 = tail call zeroext i8 @lean_name_eq(ptr noundef nonnull %1, ptr noundef %26) #3
  %28 = load i32, ptr %1, align 4, !tbaa !8
  %29 = icmp sgt i32 %28, 1
  br i1 %29, label %30, label %32, !prof !11

30:                                               ; preds = %25
  %31 = add nsw i32 %28, -1
  store i32 %31, ptr %1, align 4, !tbaa !8
  br label %lean_dec.exit

32:                                               ; preds = %25
  %.not.i20 = icmp eq i32 %28, 0
  br i1 %.not.i20, label %lean_dec.exit, label %33

33:                                               ; preds = %32
  tail call void @lean_dec_ref_cold(ptr noundef nonnull %1) #3
  br label %lean_dec.exit

34:                                               ; preds = %16
  %35 = load i32, ptr %1, align 4, !tbaa !8
  %36 = icmp sgt i32 %35, 1
  br i1 %36, label %37, label %39, !prof !11

37:                                               ; preds = %34
  %38 = add nsw i32 %35, -1
  store i32 %38, ptr %1, align 4, !tbaa !8
  br label %lean_dec.exit

39:                                               ; preds = %34
  %.not.i18 = icmp eq i32 %35, 0
  br i1 %.not.i18, label %lean_dec.exit, label %40

40:                                               ; preds = %39
  tail call void @lean_dec_ref_cold(ptr noundef nonnull %1) #3
  br label %lean_dec.exit

41:                                               ; preds = %lean_inc.exit
  %42 = load i32, ptr %1, align 4, !tbaa !8
  %43 = icmp sgt i32 %42, 1
  br i1 %43, label %44, label %46, !prof !11

44:                                               ; preds = %41
  %45 = add nsw i32 %42, -1
  store i32 %45, ptr %1, align 4, !tbaa !8
  br label %lean_dec.exit

46:                                               ; preds = %41
  %.not.i = icmp eq i32 %42, 0
  br i1 %.not.i, label %lean_dec.exit, label %47

47:                                               ; preds = %46
  tail call void @lean_dec_ref_cold(ptr noundef nonnull %1) #3
  br label %lean_dec.exit

lean_dec.exit:                                    ; preds = %.thread25, %.thread23, %lean_inc.exit.thread, %44, %46, %47, %37, %39, %40, %30, %32, %33
  %.1 = phi i8 [ %27, %33 ], [ %27, %32 ], [ %27, %30 ], [ 1, %40 ], [ 1, %39 ], [ 1, %37 ], [ 1, %47 ], [ 1, %46 ], [ 1, %44 ], [ 1, %lean_inc.exit.thread ], [ 1, %.thread23 ], [ %24, %.thread25 ]
  ret i8 %.1
}